target datalayout = "e-m:e-p270:32:32-p271:32:32-p272:64:64-i64:64-i128:128-f80:128-n8:16:32:64-S128"
target triple = "x86_64-pc-linux-gnu"

%struct.FxuCube = type { i32, ptr, ptr, %struct.FxuListLit, ptr, ptr, ptr }
%struct.FxuListLit = type { ptr, ptr, i32 }

; Function Attrs: nounwind uwtable
define void @Fxu_PairCanonicize2(ptr noundef %0, ptr noundef %1) #0 {
  %3 = alloca ptr, align 8
  %4 = alloca ptr, align 8
  %5 = alloca ptr, align 8
  store ptr %0, ptr %3, align 8, !tbaa !3
  store ptr %1, ptr %4, align 8, !tbaa !3
  call void @llvm.lifetime.start.p0(i64 8, ptr %5) #6
  %6 = load ptr, ptr %3, align 8, !tbaa !3
  %7 = load ptr, ptr %6, align 8, !tbaa !8
  %8 = getelementptr inbounds nuw %struct.FxuCube, ptr %7, i32 0, i32 0
  %9 = load i32, ptr %8, align 8, !tbaa !20
  %10 = load ptr, ptr %4, align 8, !tbaa !3
  %11 = load ptr, ptr %10, align 8, !tbaa !8
  %12 = getelementptr inbounds nuw %struct.FxuCube, ptr %11, i32 0, i32 0
  %13 = load i32, ptr %12, align 8, !tbaa !20
  %14 = icmp sgt i32 %9, %13
  br i1 %14, label %15, label %23

15:                                               ; preds = %2
  %16 = load ptr, ptr %3, align 8, !tbaa !3
  %17 = load ptr, ptr %16, align 8, !tbaa !8
  store ptr %17, ptr %5, align 8, !tbaa !8
  %18 = load ptr, ptr %4, align 8, !tbaa !3
  %19 = load ptr, ptr %18, align 8, !tbaa !8
  %20 = load ptr, ptr %3, align 8, !tbaa !3
  store ptr %19, ptr %20, align 8, !tbaa !8
  %21 = load ptr, ptr %5, align 8, !tbaa !8
  %22 = load ptr, ptr %4, align 8, !tbaa !3
  store ptr %21, ptr %22, align 8, !tbaa !8
  br label %23

23:                                               ; preds = %15, %2
  call void @llvm.lifetime.end.p0(i64 8, ptr %5) #6
  ret void
}