; Function Attrs: mustprogress nofree norecurse nosync nounwind willreturn memory(read, argmem: readwrite, inaccessiblemem: none) uwtable
define void @Fxu_PairCanonicize2(ptr noundef captures(none) %0, ptr noundef captures(none) %1) local_unnamed_addr #1 {
  %3 = load ptr, ptr %0, align 8, !tbaa !3
  %4 = load i32, ptr %3, align 8, !tbaa !14
  %5 = load ptr, ptr %1, align 8, !tbaa !3
  %6 = load i32, ptr %5, align 8, !tbaa !14
  %7 = icmp sgt i32 %4, %6
  br i1 %7, label %8, label %9

8:                                                ; preds = %2
  store ptr %5, ptr %0, align 8, !tbaa !3
  store ptr %3, ptr %1, align 8, !tbaa !3
  br label %9

9:                                                ; preds = %8, %2
  ret void
}